ccopy_reg
_reconstructor
p1
(csklearn.naive_bayes
GaussianNB
p2
c__builtin__
object
p3
NtRp4
(dp5
S'class_prior_'
p6
cnumpy.core.multiarray
_reconstruct
p7
(cnumpy
ndarray
p8
(I0
tS'b'
tRp9
(I1
(I1
tcnumpy
dtype
p10
(S'f8'
I0
I1
tRp11
(I3
S'<'
NNNI-1
I-1
I0
tbI00
S'\x00\x00\x00\x00\x00\x00\xf0?'
tbsS'priors'
p12
NsS'classes_'
p13
g7
(g8
(I0
tS'b'
tRp14
(I1
(I1
tg11
I00
S'\x00\x00\x00\x00\x00\x00\xf0\xbf'
tbsS'theta_'
p15
g7
(g8
(I0
tS'b'
tRp16
(I1
(I1
I3
tg11
I00
S'\x1a\xb4\xde\xbc\x0e\xea\xf4?-\xfe\xa8\xecH\x92\xec?0\x08\xff\\\xc37S@'
tbsS'sigma_'
p17
g7
(g8
(I0
tS'b'
tRp18
(I1
(I1
I3
tg11
I00
S'\x8b{.%3\xc4t?\x81{.%3\xc4t?\x16\x98\x8a\xff<\xf7\xd3@'
tbsS'_sklearn_version'
p19
S'0.18.1'
p20
sS'class_count_'
p21
g7
(g8
(I0
tS'b'
tRp22
(I1
(I1
tg11
I00
S'\x00\x00\x00\x00\x00\x00Y@'
tbsb.